target datalayout = "e-m:e-p270:32:32-p271:32:32-p272:64:64-i64:64-i128:128-f80:128-n8:16:32:64-S128"
target triple = "x86_64-pc-linux-gnu"

%struct.ident_t = type { i32, i32, i32, i32, ptr }

@2 = private unnamed_addr constant %struct.ident_t { i32 0, i32 2, i32 0, i32 22, ptr @0 }, align 8

; Function Attrs: mustprogress nounwind uwtable
define void @_ZN5faiss18fvec_renorm_L2_ompEmmPf(i64 noundef %0, i64 noundef %1, ptr noalias noundef %2) #0 {
  %4 = alloca i64, align 8
  %5 = alloca i64, align 8
  %6 = alloca ptr, align 8
  %7 = alloca i32, align 4
  %8 = alloca i32, align 4
  %9 = call i32 @__kmpc_global_thread_num(ptr @2)
  store i64 %0, ptr %4, align 8
  store i64 %1, ptr %5, align 8
  store ptr %2, ptr %6, align 8
  %10 = load i64, ptr %5, align 8
  %11 = icmp ugt i64 %10, 10000
  br i1 %11, label %12, label %13

12:                                               ; preds = %3
  call void (ptr, i32, ptr, ...) @__kmpc_fork_call(ptr @2, i32 3, ptr @_ZN5faiss18fvec_renorm_L2_ompEmmPf.omp_outlined, ptr %5, ptr %6, ptr %4)
  br label %14

13:                                               ; preds = %3
  call void @__kmpc_serialized_parallel(ptr @2, i32 %9)
  store i32 %9, ptr %7, align 4
  store i32 0, ptr %8, align 4
  call void @_ZN5faiss18fvec_renorm_L2_ompEmmPf.omp_outlined(ptr %7, ptr %8, ptr %5, ptr %6, ptr %4) #2
  call void @__kmpc_end_serialized_parallel(ptr @2, i32 %9)
  br label %14

14:                                               ; preds = %13, %12
  ret void
}