; Function Attrs: mustprogress nounwind uwtable
define void @_ZN5faiss18fvec_renorm_L2_ompEmmPf(i64 noundef %0, i64 noundef %1, ptr noalias noundef %2) local_unnamed_addr #0 {
  %4 = alloca i64, align 8
  %5 = alloca i64, align 8
  %6 = alloca ptr, align 8
  %7 = alloca i32, align 4
  %8 = tail call i32 @__kmpc_global_thread_num(ptr nonnull @2)
  store i64 %0, ptr %4, align 8
  store i64 %1, ptr %5, align 8
  store ptr %2, ptr %6, align 8
  %9 = icmp ugt i64 %1, 10000
  br i1 %9, label %10, label %11

10:                                               ; preds = %3
  call void (ptr, i32, ptr, ...) @__kmpc_fork_call(ptr nonnull @2, i32 3, ptr nonnull @_ZN5faiss18fvec_renorm_L2_ompEmmPf.omp_outlined, ptr nonnull %5, ptr nonnull %6, ptr nonnull %4)
  br label %12

11:                                               ; preds = %3
  tail call void @__kmpc_serialized_parallel(ptr nonnull @2, i32 %8)
  store i32 %8, ptr %7, align 4
  call void @_ZN5faiss18fvec_renorm_L2_ompEmmPf.omp_outlined(ptr nonnull %7, ptr nonnull poison, ptr %5, ptr %6, ptr %4) #2
  tail call void @__kmpc_end_serialized_parallel(ptr nonnull @2, i32 %8)
  br label %12

12:                                               ; preds = %11, %10
  ret void
}